target datalayout = "e-m:e-p270:32:32-p271:32:32-p272:64:64-i64:64-i128:128-f80:128-n8:16:32:64-S128"
target triple = "x86_64-pc-linux-gnu"

%struct._VAConfigAttrib = type { i32, i32 }
%struct.AVCodecContext = type { ptr, i32, i32, ptr, i32, i32, ptr, ptr, ptr, i64, i32, i32, ptr, i32, %struct.AVRational, %struct.AVRational, %struct.AVRational, i32, i32, i32, i32, i32, %struct.AVRational, i32, i32, i32, i32, i32, i32, i32, i32, i32, i32, i32, ptr, ptr, i32, float, float, float, float, float, float, float, float, float, i32, i32, i32, i32, i32, i32, i32, i32, i32, i32, i32, i32, ptr, ptr, ptr, i32, i32, i32, i32, i32, i32, i32, i32, i32, i32, %struct.AVChannelLayout, i32, i32, i32, i32, i32, i32, i32, i32, ptr, i32, i32, i32, float, float, i32, i32, i32, i32, i32, ptr, i64, i64, float, float, i32, i32, ptr, ptr, i32, i32, i32, i32, i32, ptr, ptr, ptr, ptr, i32, i32, [8 x i64], i32, i32, i32, i32, i32, i32, i32, ptr, ptr, i32, i32, i32, i32, i32, i32, i32, i32, i32, i32, ptr, ptr, i32, i32, ptr, ptr, ptr, ptr, i32, i32, i64, i32, i32, i64, ptr, i64, ptr, i32, ptr, i32 }
%struct.AVRational = type { i32, i32 }
%struct.AVChannelLayout = type { i32, i32, %union.anon, ptr }
%union.anon = type { i64 }
%struct.VAAPIEncodeContext = type { %struct.FFHWBaseEncodeContext, ptr, i32, i32, i32, i32, i32, i32, ptr, ptr, i32, i32, i32, i32, i32, i32, [4 x %struct._VAConfigAttrib], i32, i32, i32, ptr, ptr, [4 x i32], [4 x ptr], [4 x i64], i32, %struct._VAEncMiscParameterRateControl, %struct._VAEncMiscParameterHRD, %struct._VAEncMiscParameterFrameRate, %struct._VAEncMiscParameterBufferMaxFrameSize, %struct._VAEncMiscParameterBufferQualityLevel, ptr, ptr, i32, i32, i32, i32, i32, i32, [20 x i32], [22 x i32], [21 x i32], [23 x i32], i32, i32, ptr, i32, i32 }
%struct.FFHWBaseEncodeContext = type { ptr, ptr, ptr, i32, i32, i32, i32, i32, i32, ptr, ptr, ptr, ptr, ptr, ptr, ptr, ptr, [2 x ptr], i32, i64, i64, i64, i64, i64, i64, i64, [112 x i64], i32, i32, i32, i32, i32, i32, i32, i32, i32, i32, i32, i32, i32, i32, i32, i32, ptr, i32, ptr, i32, ptr }
%struct._VAEncMiscParameterRateControl = type { i32, i32, i32, i32, i32, i32, %union.anon.0, i32, i32, i32, i32, [4 x i32] }
%union.anon.0 = type { %struct.anon }
%struct.anon = type { i32 }
%struct._VAEncMiscParameterHRD = type { i32, i32, [4 x i32] }
%struct._VAEncMiscParameterFrameRate = type { i32, %union.anon.1, [4 x i32] }
%union.anon.1 = type { %struct.anon.2 }
%struct.anon.2 = type { i32 }
%struct._VAEncMiscParameterBufferMaxFrameSize = type { i32, i32, [4 x i32] }
%struct._VAEncMiscParameterBufferQualityLevel = type { i32, [4 x i32] }
%struct.AVVAAPIDeviceContext = type { ptr, i32 }
%struct._VACodedBufferSegment = type { i32, i32, i32, i32, ptr, ptr, [4 x i32] }

@.str.56 = private unnamed_addr constant [40 x i8] c"Failed to map output buffers: %d (%s).\0A\00", align 1
@.str.57 = private unnamed_addr constant [42 x i8] c"Failed to unmap output buffers: %d (%s).\0A\00", align 1
@.str.58 = private unnamed_addr constant [40 x i8] c"Output buffer: %u bytes (status %08x).\0A\00", align 1

; Function Attrs: nounwind uwtable
define internal i32 @vaapi_encode_get_coded_buffer_data(ptr noundef %0, i32 noundef %1, ptr noundef %2) #0 {
  %4 = alloca i32, align 4
  %5 = alloca ptr, align 8
  %6 = alloca i32, align 4
  %7 = alloca ptr, align 8
  %8 = alloca ptr, align 8
  %9 = alloca ptr, align 8
  %10 = alloca ptr, align 8
  %11 = alloca i32, align 4
  %12 = alloca i32, align 4
  %13 = alloca i32, align 4
  store ptr %0, ptr %5, align 8, !tbaa !4
  store i32 %1, ptr %6, align 4, !tbaa !37
  store ptr %2, ptr %7, align 8, !tbaa !350
  call void @llvm.lifetime.start.p0(i64 8, ptr %8) #10
  %14 = load ptr, ptr %5, align 8, !tbaa !4
  %15 = getelementptr inbounds nuw %struct.AVCodecContext, ptr %14, i32 0, i32 6
  %16 = load ptr, ptr %15, align 8, !tbaa !11
  store ptr %16, ptr %8, align 8, !tbaa !33
  call void @llvm.lifetime.start.p0(i64 8, ptr %9) #10
  call void @llvm.lifetime.start.p0(i64 8, ptr %10) #10
  call void @llvm.lifetime.start.p0(i64 4, ptr %11) #10
  call void @llvm.lifetime.start.p0(i64 4, ptr %12) #10
  %17 = load ptr, ptr %8, align 8, !tbaa !33
  %18 = getelementptr inbounds nuw %struct.VAAPIEncodeContext, ptr %17, i32 0, i32 20
  %19 = load ptr, ptr %18, align 8, !tbaa !62
  %20 = getelementptr inbounds nuw %struct.AVVAAPIDeviceContext, ptr %19, i32 0, i32 0
  %21 = load ptr, ptr %20, align 8, !tbaa !75
  %22 = load i32, ptr %6, align 4, !tbaa !37
  %23 = call i32 @vaMapBuffer(ptr noundef %21, i32 noundef %22, ptr noundef %9)
  store i32 %23, ptr %11, align 4, !tbaa !37
  %24 = load i32, ptr %11, align 4, !tbaa !37
  %25 = icmp ne i32 %24, 0
  br i1 %25, label %26, label %32

26:                                               ; preds = %3
  %27 = load ptr, ptr %5, align 8, !tbaa !4
  %28 = load i32, ptr %11, align 4, !tbaa !37
  %29 = load i32, ptr %11, align 4, !tbaa !37
  %30 = call ptr @vaErrorStr(i32 noundef %29)
  call void (ptr, i32, ptr, ...) @av_log(ptr noundef %27, i32 noundef 16, ptr noundef @.str.56, i32 noundef %28, ptr noundef %30)
  store i32 -5, ptr %12, align 4, !tbaa !37
  %31 = load i32, ptr %12, align 4, !tbaa !37
  store i32 %31, ptr %4, align 4
  store i32 1, ptr %13, align 4
  br label %82

32:                                               ; preds = %3
  %33 = load ptr, ptr %9, align 8, !tbaa !344
  store ptr %33, ptr %10, align 8, !tbaa !344
  br label %34

34:                                               ; preds = %61, %32
  %35 = load ptr, ptr %10, align 8, !tbaa !344
  %36 = icmp ne ptr %35, null
  br i1 %36, label %37, label %65

37:                                               ; preds = %34
  %38 = load ptr, ptr %5, align 8, !tbaa !4
  %39 = load ptr, ptr %10, align 8, !tbaa !344
  %40 = getelementptr inbounds nuw %struct._VACodedBufferSegment, ptr %39, i32 0, i32 0
  %41 = load i32, ptr %40, align 8, !tbaa !346
  %42 = load ptr, ptr %10, align 8, !tbaa !344
  %43 = getelementptr inbounds nuw %struct._VACodedBufferSegment, ptr %42, i32 0, i32 2
  %44 = load i32, ptr %43, align 8, !tbaa !352
  call void (ptr, i32, ptr, ...) @av_log(ptr noundef %38, i32 noundef 48, ptr noundef @.str.58, i32 noundef %41, i32 noundef %44)
  %45 = load ptr, ptr %7, align 8, !tbaa !350
  %46 = load ptr, ptr %45, align 8, !tbaa !133
  %47 = load ptr, ptr %10, align 8, !tbaa !344
  %48 = getelementptr inbounds nuw %struct._VACodedBufferSegment, ptr %47, i32 0, i32 4
  %49 = load ptr, ptr %48, align 8, !tbaa !353
  %50 = load ptr, ptr %10, align 8, !tbaa !344
  %51 = getelementptr inbounds nuw %struct._VACodedBufferSegment, ptr %50, i32 0, i32 0
  %52 = load i32, ptr %51, align 8, !tbaa !346
  %53 = zext i32 %52 to i64
  call void @llvm.memcpy.p0.p0.i64(ptr align 1 %46, ptr align 1 %49, i64 %53, i1 false)
  %54 = load ptr, ptr %10, align 8, !tbaa !344
  %55 = getelementptr inbounds nuw %struct._VACodedBufferSegment, ptr %54, i32 0, i32 0
  %56 = load i32, ptr %55, align 8, !tbaa !346
  %57 = load ptr, ptr %7, align 8, !tbaa !350
  %58 = load ptr, ptr %57, align 8, !tbaa !133
  %59 = zext i32 %56 to i64
  %60 = getelementptr inbounds nuw i8, ptr %58, i64 %59
  store ptr %60, ptr %57, align 8, !tbaa !133
  br label %61

61:                                               ; preds = %37
  %62 = load ptr, ptr %10, align 8, !tbaa !344
  %63 = getelementptr inbounds nuw %struct._VACodedBufferSegment, ptr %62, i32 0, i32 5
  %64 = load ptr, ptr %63, align 8, !tbaa !348
  store ptr %64, ptr %10, align 8, !tbaa !344
  br label %34, !llvm.loop !354

65:                                               ; preds = %34
  %66 = load ptr, ptr %8, align 8, !tbaa !33
  %67 = getelementptr inbounds nuw %struct.VAAPIEncodeContext, ptr %66, i32 0, i32 20
  %68 = load ptr, ptr %67, align 8, !tbaa !62
  %69 = getelementptr inbounds nuw %struct.AVVAAPIDeviceContext, ptr %68, i32 0, i32 0
  %70 = load ptr, ptr %69, align 8, !tbaa !75
  %71 = load i32, ptr %6, align 4, !tbaa !37
  %72 = call i32 @vaUnmapBuffer(ptr noundef %70, i32 noundef %71)
  store i32 %72, ptr %11, align 4, !tbaa !37
  %73 = load i32, ptr %11, align 4, !tbaa !37
  %74 = icmp ne i32 %73, 0
  br i1 %74, label %75, label %81

75:                                               ; preds = %65
  %76 = load ptr, ptr %5, align 8, !tbaa !4
  %77 = load i32, ptr %11, align 4, !tbaa !37
  %78 = load i32, ptr %11, align 4, !tbaa !37
  %79 = call ptr @vaErrorStr(i32 noundef %78)
  call void (ptr, i32, ptr, ...) @av_log(ptr noundef %76, i32 noundef 16, ptr noundef @.str.57, i32 noundef %77, ptr noundef %79)
  store i32 -5, ptr %12, align 4, !tbaa !37
  %80 = load i32, ptr %12, align 4, !tbaa !37
  store i32 %80, ptr %4, align 4
  store i32 1, ptr %13, align 4
  br label %82

81:                                               ; preds = %65
  store i32 0, ptr %4, align 4
  store i32 1, ptr %13, align 4
  br label %82

82:                                               ; preds = %81, %75, %26
  call void @llvm.lifetime.end.p0(i64 4, ptr %12) #10
  call void @llvm.lifetime.end.p0(i64 4, ptr %11) #10
  call void @llvm.lifetime.end.p0(i64 8, ptr %10) #10
  call void @llvm.lifetime.end.p0(i64 8, ptr %9) #10
  call void @llvm.lifetime.end.p0(i64 8, ptr %8) #10
  %83 = load i32, ptr %4, align 4
  ret i32 %83
}