; Function Attrs: nounwind uwtable
define internal fastcc range(i32 -5, 1) i32 @vaapi_encode_get_coded_buffer_data(ptr noundef %0, i32 noundef %1, ptr noundef nonnull captures(none) %2) unnamed_addr #0 {
  %4 = alloca ptr, align 8
  %5 = getelementptr inbounds nuw i8, ptr %0, i64 32
  %6 = load ptr, ptr %5, align 8, !tbaa !4
  call void @llvm.lifetime.start.p0(i64 8, ptr nonnull %4) #9
  %7 = getelementptr inbounds nuw i8, ptr %6, i64 1312
  %8 = load ptr, ptr %7, align 8, !tbaa !52
  %9 = load ptr, ptr %8, align 8, !tbaa !65
  %10 = call i32 @vaMapBuffer(ptr noundef %9, i32 noundef %1, ptr noundef nonnull %4) #9
  %.not = icmp eq i32 %10, 0
  br i1 %.not, label %.preheader, label %11

.preheader:                                       ; preds = %3
  %.030 = load ptr, ptr %4, align 8, !tbaa !98
  %.not2831 = icmp eq ptr %.030, null
  br i1 %.not2831, label %._crit_edge, label %.lr.ph

11:                                               ; preds = %3
  %12 = call ptr @vaErrorStr(i32 noundef %10) #9
  call void (ptr, i32, ptr, ...) @av_log(ptr noundef nonnull %0, i32 noundef 16, ptr noundef nonnull @.str.56, i32 noundef %10, ptr noundef %12) #9
  br label %31

.lr.ph:                                           ; preds = %.preheader, %.lr.ph
  %.032 = phi ptr [ %.0, %.lr.ph ], [ %.030, %.preheader ]
  %13 = load i32, ptr %.032, align 8, !tbaa !283
  %14 = getelementptr inbounds nuw i8, ptr %.032, i64 8
  %15 = load i32, ptr %14, align 8, !tbaa !286
  call void (ptr, i32, ptr, ...) @av_log(ptr noundef nonnull %0, i32 noundef 48, ptr noundef nonnull @.str.58, i32 noundef %13, i32 noundef %15) #9
  %16 = load ptr, ptr %2, align 8, !tbaa !209
  %17 = getelementptr inbounds nuw i8, ptr %.032, i64 16
  %18 = load ptr, ptr %17, align 8, !tbaa !287
  %19 = load i32, ptr %.032, align 8, !tbaa !283
  %20 = zext i32 %19 to i64
  call void @llvm.memcpy.p0.p0.i64(ptr align 1 %16, ptr align 1 %18, i64 %20, i1 false)
  %21 = load i32, ptr %.032, align 8, !tbaa !283
  %22 = load ptr, ptr %2, align 8, !tbaa !209
  %23 = zext i32 %21 to i64
  %24 = getelementptr inbounds nuw i8, ptr %22, i64 %23
  store ptr %24, ptr %2, align 8, !tbaa !209
  %25 = getelementptr inbounds nuw i8, ptr %.032, i64 24
  %.0 = load ptr, ptr %25, align 8, !tbaa !98
  %.not28 = icmp eq ptr %.0, null
  br i1 %.not28, label %._crit_edge, label %.lr.ph, !llvm.loop !288

._crit_edge:                                      ; preds = %.lr.ph, %.preheader
  %26 = load ptr, ptr %7, align 8, !tbaa !52
  %27 = load ptr, ptr %26, align 8, !tbaa !65
  %28 = call i32 @vaUnmapBuffer(ptr noundef %27, i32 noundef %1) #9
  %.not29 = icmp eq i32 %28, 0
  br i1 %.not29, label %31, label %29

29:                                               ; preds = %._crit_edge
  %30 = call ptr @vaErrorStr(i32 noundef %28) #9
  call void (ptr, i32, ptr, ...) @av_log(ptr noundef nonnull %0, i32 noundef 16, ptr noundef nonnull @.str.57, i32 noundef %28, ptr noundef %30) #9
  br label %31

31:                                               ; preds = %._crit_edge, %29, %11
  %.025 = phi i32 [ -5, %11 ], [ -5, %29 ], [ 0, %._crit_edge ]
  call void @llvm.lifetime.end.p0(i64 8, ptr nonnull %4) #9
  ret i32 %.025
}